ccollections
Counter
p0
((dp1
I0
I4550
sI1
I3341
sI2
I1951
sI3
I1054
sI4
I552
sI5
I248
sI6
I124
sI7
I58
sI8
I17
sI9
I7
sI10
I3
sI11
I1
sI12
I2
sI-1
I4801
sI-10
I1
sI-9
I5
sI-8
I9
sI-7
I37
sI-6
I86
sI-5
I177
sI-4
I461
sI-3
I1021
sI-2
I2389
stp2
Rp3
.