ccollections
Counter
p0
((dp1
I0
I511973
sI1
I366252
sI2
I220866
sI3
I119811
sI4
I60540
sI5
I28643
sI6
I13109
sI7
I5805
sI8
I2472
sI9
I1026
sI10
I411
sI11
I179
sI12
I55
sI13
I45
sI14
I16
sI15
I4
sI16
I3
sI17
I2
sI-1
I539852
sI-14
I3
sI-13
I5
sI-12
I13
sI-11
I33
sI-10
I133
sI-9
I442
sI-8
I1205
sI-7
I3310
sI-6
I8607
sI-5
I20912
sI-4
I49582
sI-3
I115924
sI-2
I265376
stp2
Rp3
.