ccollections
Counter
p0
((dp1
I0
I5327
sI1
I3811
sI2
I2181
sI3
I1301
sI4
I659
sI5
I295
sI6
I142
sI7
I55
sI8
I34
sI9
I16
sI10
I5
sI-1
I5646
sI-10
I2
sI-9
I3
sI-8
I11
sI-7
I47
sI-6
I101
sI-5
I225
sI-4
I521
sI-3
I1154
sI-2
I2760
stp2
Rp3
.