ccollections
Counter
p0
((dp1
I0
I254807
sI1
I181657
sI2
I109392
sI3
I59909
sI4
I30163
sI5
I14463
sI6
I6458
sI7
I2965
sI8
I1235
sI9
I555
sI10
I220
sI11
I93
sI12
I47
sI13
I15
sI14
I5
sI15
I5
sI16
I1
sI18
I1
sI21
I1
sI-1
I268418
sI-13
I4
sI-12
I12
sI-11
I18
sI-10
I69
sI-9
I189
sI-8
I553
sI-7
I1665
sI-6
I4375
sI-5
I10654
sI-4
I24649
sI-3
I57659
sI-2
I132696
stp2
Rp3
.